; Function Attrs: mustprogress nounwind uwtable
define hidden noundef zeroext i1 @_ZN5XMark9try_stealEP12XMarkContext(ptr noundef nonnull align 64 dereferenceable(2492) %0, ptr nocapture noundef readonly %1) local_unnamed_addr #0 align 2 {
  %3 = getelementptr inbounds i8, ptr %1, i64 24592
  %4 = load ptr, ptr %3, align 8
  %5 = ptrtoint ptr %4 to i64
  %6 = getelementptr inbounds i8, ptr %0, i64 256
  %7 = ptrtoint ptr %6 to i64
  %8 = sub i64 %5, %7
  %9 = lshr i64 %8, 7
  %10 = add nuw nsw i64 %9, 1
  %11 = getelementptr inbounds i8, ptr %0, i64 200
  %12 = load i64, ptr %11, align 8
  %13 = and i64 %10, %12
  %.01423.i = getelementptr inbounds [16 x %class.XMarkStripe], ptr %6, i64 0, i64 %13
  %.not24.not.i = icmp eq ptr %.01423.i, %4
  br i1 %.not24.not.i, label %.loopexit, label %.lr.ph.i

.lr.ph.i:                                         ; preds = %2
  %14 = getelementptr inbounds i8, ptr %1, i64 24600
  %15 = load ptr, ptr %14, align 8
  %16 = getelementptr inbounds i8, ptr %15, i64 8
  br label %17

17:                                               ; preds = %20, %.lr.ph.i
  %.pn25.i = phi i64 [ %13, %.lr.ph.i ], [ %22, %20 ]
  %.014.idx.i = and i64 %.pn25.i, 144115188075855871
  %18 = getelementptr inbounds [16 x ptr], ptr %16, i64 0, i64 %.014.idx.i
  %19 = load ptr, ptr %18, align 8
  %.not.i.i = icmp eq ptr %19, null
  br i1 %.not.i.i, label %20, label %_ZN5XMark15try_steal_localEP12XMarkContext.exit

20:                                               ; preds = %17
  %21 = add nuw nsw i64 %.014.idx.i, 1
  %22 = and i64 %21, %12
  %.014.i = getelementptr inbounds [16 x %class.XMarkStripe], ptr %6, i64 0, i64 %22
  %.not.not.i = icmp eq ptr %.014.i, %4
  br i1 %.not.not.i, label %.loopexit, label %17, !llvm.loop !12

_ZN5XMark15try_steal_localEP12XMarkContext.exit:  ; preds = %17
  %23 = getelementptr inbounds [16 x ptr], ptr %16, i64 0, i64 %.014.idx.i
  store ptr null, ptr %23, align 8
  %24 = getelementptr inbounds [16 x ptr], ptr %16, i64 0, i64 %9
  store ptr %19, ptr %24, align 8
  br label %26

.loopexit:                                        ; preds = %20, %2
  %25 = tail call noundef zeroext i1 @_ZN5XMark16try_steal_globalEP12XMarkContext(ptr noundef nonnull align 64 dereferenceable(2492) %0, ptr noundef %1)
  br label %26

26:                                               ; preds = %_ZN5XMark15try_steal_localEP12XMarkContext.exit, %.loopexit
  %27 = phi i1 [ true, %_ZN5XMark15try_steal_localEP12XMarkContext.exit ], [ %25, %.loopexit ]
  ret i1 %27
}